(dp0
S'Noise'
p1
(lp2
S'xxxxxxxxxxxxxxxxxxx'
p3
aS'_'
p4
aS'__'
p5
aS'___'
p6
aS'____'
p7
aS'_____'
p8
aS'______'
p9
aS'_______'
p10
aS''
p11
asS'YaksSignals'
p12
(lp13
sS'Signal'
p14
(lp15
g3
asS'Hist'
p16
(dp17
g11
I635
sg5
I564
sg8
I573
sg7
I585
sg6
I574
sg3
I578
sg10
I572
sg4
I589
sg9
I636
ssS'Yaks'
p18
(lp19
sS'Tik'
p20
I5305
sS'Nothing'
p21
(lp22
g11
asS'Silence'
p23
(lp24
g4
ag5
ag6
ag7
ag8
ag9
ag10
as.